; Function Attrs: mustprogress nofree norecurse nosync nounwind ssp willreturn memory(argmem: readwrite) uwtable
define void @_ZN6open3d13visualization12RenderOption12SetPointSizeEd(ptr noundef nonnull align 8 captures(none) dereferenceable(497) initializes((424, 432)) %0, double noundef %1) local_unnamed_addr #9 align 2 {
  %3 = getelementptr inbounds nuw i8, ptr %0, i64 8
  %4 = load double, ptr %3, align 8, !tbaa !25
  %5 = fcmp olt double %4, %1
  %6 = getelementptr inbounds nuw i8, ptr %0, i64 16
  %7 = select i1 %5, double %4, double %1
  %8 = load double, ptr %6, align 8, !tbaa !25
  %9 = fcmp olt double %7, %8
  %10 = select i1 %9, double %8, double %7
  %11 = getelementptr inbounds nuw i8, ptr %0, i64 424
  store double %10, ptr %11, align 8, !tbaa !26
  ret void
}